target datalayout = "e-m:e-p270:32:32-p271:32:32-p272:64:64-i64:64-i128:128-f80:128-n8:16:32:64-S128"
target triple = "x86_64-pc-linux-gnu"

%struct.SDL_AtomicInt = type { i32 }
%struct.SDL_JoystickDriver = type { ptr, ptr, ptr, ptr, ptr, ptr, ptr, ptr, ptr, ptr, ptr, ptr, ptr, ptr, ptr, ptr, ptr, ptr, ptr, ptr, ptr }
%struct.SDL_GUID = type { [16 x i8] }
%struct.SDL_SteamVirtualGamepadInfo = type { i64, ptr, i16, i16, i32 }

@SDL_joysticks_initialized = internal global i8 0, align 1
@SDL_joystick_lock_pending = internal global %struct.SDL_AtomicInt zeroinitializer, align 4
@SDL_joystick_lock = internal global ptr null, align 8
@SDL_joysticks_locked = internal global i32 0, align 4
@SDL_joystick_drivers = internal global [3 x ptr] [ptr @SDL_HIDAPI_JoystickDriver, ptr @SDL_LINUX_JoystickDriver, ptr @SDL_VIRTUAL_JoystickDriver], align 16
@.str.43 = private unnamed_addr constant [22 x i8] c"Joystick %u not found\00", align 1

; Function Attrs: nounwind uwtable
define hidden void @SDL_AssertJoysticksLocked() #0 {
  br label %1

1:                                                ; preds = %0
  br label %2

2:                                                ; preds = %1
  ret void
}

; Function Attrs: nounwind uwtable
define internal zeroext i1 @SDL_GetDriverAndJoystickIndex(i32 noundef %0, ptr noundef %1, ptr noundef %2) #0 {
  %4 = alloca i1, align 1
  %5 = alloca i32, align 4
  %6 = alloca ptr, align 8
  %7 = alloca ptr, align 8
  %8 = alloca i32, align 4
  %9 = alloca i32, align 4
  %10 = alloca i32, align 4
  %11 = alloca i32, align 4
  %12 = alloca i32, align 4
  store i32 %0, ptr %5, align 4
  store ptr %1, ptr %6, align 8
  store ptr %2, ptr %7, align 8
  call void @llvm.lifetime.start.p0(i64 4, ptr %8) #7
  call void @llvm.lifetime.start.p0(i64 4, ptr %9) #7
  call void @llvm.lifetime.start.p0(i64 4, ptr %10) #7
  call void @SDL_AssertJoysticksLocked()
  %13 = load i32, ptr %5, align 4
  %14 = icmp ugt i32 %13, 0
  br i1 %14, label %15, label %64

15:                                               ; preds = %3
  store i32 0, ptr %8, align 4
  br label %16

16:                                               ; preds = %60, %15
  %17 = load i32, ptr %8, align 4
  %18 = sext i32 %17 to i64
  %19 = icmp ult i64 %18, 3
  br i1 %19, label %20, label %63

20:                                               ; preds = %16
  %21 = load i32, ptr %8, align 4
  %22 = sext i32 %21 to i64
  %23 = getelementptr inbounds [3 x ptr], ptr @SDL_joystick_drivers, i64 0, i64 %22
  %24 = load ptr, ptr %23, align 8
  %25 = getelementptr inbounds nuw %struct.SDL_JoystickDriver, ptr %24, i32 0, i32 1
  %26 = load ptr, ptr %25, align 8
  %27 = call i32 %26()
  store i32 %27, ptr %9, align 4
  store i32 0, ptr %10, align 4
  br label %28

28:                                               ; preds = %56, %20
  %29 = load i32, ptr %10, align 4
  %30 = load i32, ptr %9, align 4
  %31 = icmp slt i32 %29, %30
  br i1 %31, label %32, label %59

32:                                               ; preds = %28
  call void @llvm.lifetime.start.p0(i64 4, ptr %11) #7
  %33 = load i32, ptr %8, align 4
  %34 = sext i32 %33 to i64
  %35 = getelementptr inbounds [3 x ptr], ptr @SDL_joystick_drivers, i64 0, i64 %34
  %36 = load ptr, ptr %35, align 8
  %37 = getelementptr inbounds nuw %struct.SDL_JoystickDriver, ptr %36, i32 0, i32 10
  %38 = load ptr, ptr %37, align 8
  %39 = load i32, ptr %10, align 4
  %40 = call i32 %38(i32 noundef %39)
  store i32 %40, ptr %11, align 4
  %41 = load i32, ptr %11, align 4
  %42 = load i32, ptr %5, align 4
  %43 = icmp eq i32 %41, %42
  br i1 %43, label %44, label %52

44:                                               ; preds = %32
  %45 = load i32, ptr %8, align 4
  %46 = sext i32 %45 to i64
  %47 = getelementptr inbounds [3 x ptr], ptr @SDL_joystick_drivers, i64 0, i64 %46
  %48 = load ptr, ptr %47, align 8
  %49 = load ptr, ptr %6, align 8
  store ptr %48, ptr %49, align 8
  %50 = load i32, ptr %10, align 4
  %51 = load ptr, ptr %7, align 8
  store i32 %50, ptr %51, align 4
  store i1 true, ptr %4, align 1
  store i32 1, ptr %12, align 4
  br label %53

52:                                               ; preds = %32
  store i32 0, ptr %12, align 4
  br label %53

53:                                               ; preds = %52, %44
  call void @llvm.lifetime.end.p0(i64 4, ptr %11) #7
  %54 = load i32, ptr %12, align 4
  switch i32 %54, label %67 [
    i32 0, label %55
  ]

55:                                               ; preds = %53
  br label %56

56:                                               ; preds = %55
  %57 = load i32, ptr %10, align 4
  %58 = add nsw i32 %57, 1
  store i32 %58, ptr %10, align 4
  br label %28, !llvm.loop !15

59:                                               ; preds = %28
  br label %60

60:                                               ; preds = %59
  %61 = load i32, ptr %8, align 4
  %62 = add nsw i32 %61, 1
  store i32 %62, ptr %8, align 4
  br label %16, !llvm.loop !16

63:                                               ; preds = %16
  br label %64

64:                                               ; preds = %63, %3
  %65 = load i32, ptr %5, align 4
  %66 = call zeroext i1 (ptr, ...) @SDL_SetError_REAL(ptr noundef @.str.43, i32 noundef %65)
  store i1 false, ptr %4, align 1
  store i32 1, ptr %12, align 4
  br label %67

67:                                               ; preds = %64, %53
  call void @llvm.lifetime.end.p0(i64 4, ptr %10) #7
  call void @llvm.lifetime.end.p0(i64 4, ptr %9) #7
  call void @llvm.lifetime.end.p0(i64 4, ptr %8) #7
  %68 = load i1, ptr %4, align 1
  ret i1 %68
}

; Function Attrs: nounwind uwtable
define hidden void @SDL_UnlockJoysticks_REAL() #0 {
  %1 = alloca i8, align 1
  %2 = alloca ptr, align 8
  call void @llvm.lifetime.start.p0(i64 1, ptr %1) #7
  store i8 0, ptr %1, align 1
  %3 = load i32, ptr @SDL_joysticks_locked, align 4
  %4 = add nsw i32 %3, -1
  store i32 %4, ptr @SDL_joysticks_locked, align 4
  %5 = load i8, ptr @SDL_joysticks_initialized, align 1, !range !3, !noundef !4
  %6 = trunc i8 %5 to i1
  br i1 %6, label %15, label %7

7:                                                ; preds = %0
  %8 = load i32, ptr @SDL_joysticks_locked, align 4
  %9 = icmp ne i32 %8, 0
  br i1 %9, label %14, label %10

10:                                               ; preds = %7
  %11 = call i32 @SDL_GetAtomicInt_REAL(ptr noundef @SDL_joystick_lock_pending)
  %12 = icmp eq i32 %11, 0
  br i1 %12, label %13, label %14

13:                                               ; preds = %10
  store i8 1, ptr %1, align 1
  br label %14

14:                                               ; preds = %13, %10, %7
  br label %15

15:                                               ; preds = %14, %0
  %16 = load i8, ptr %1, align 1, !range !3, !noundef !4
  %17 = trunc i8 %16 to i1
  br i1 %17, label %18, label %24

18:                                               ; preds = %15
  call void @llvm.lifetime.start.p0(i64 8, ptr %2) #7
  %19 = load ptr, ptr @SDL_joystick_lock, align 8
  store ptr %19, ptr %2, align 8
  %20 = load ptr, ptr %2, align 8
  call void @SDL_LockMutex_REAL(ptr noundef %20)
  %21 = load ptr, ptr @SDL_joystick_lock, align 8
  call void @SDL_UnlockMutex_REAL(ptr noundef %21)
  store ptr null, ptr @SDL_joystick_lock, align 8
  %22 = load ptr, ptr %2, align 8
  call void @SDL_UnlockMutex_REAL(ptr noundef %22)
  %23 = load ptr, ptr %2, align 8
  call void @SDL_DestroyMutex_REAL(ptr noundef %23)
  call void @llvm.lifetime.end.p0(i64 8, ptr %2) #7
  br label %26

24:                                               ; preds = %15
  %25 = load ptr, ptr @SDL_joystick_lock, align 8
  call void @SDL_UnlockMutex_REAL(ptr noundef %25)
  br label %26

26:                                               ; preds = %24, %18
  call void @llvm.lifetime.end.p0(i64 1, ptr %1) #7
  ret void
}

; Function Attrs: nounwind uwtable
define hidden void @SDL_GetJoystickGUIDInfo_REAL(i64 %0, i64 %1, ptr noundef %2, ptr noundef %3, ptr noundef %4, ptr noundef %5) #0 {
  %7 = alloca %struct.SDL_GUID, align 1
  %8 = alloca ptr, align 8
  %9 = alloca ptr, align 8
  %10 = alloca ptr, align 8
  %11 = alloca ptr, align 8
  %12 = alloca ptr, align 8
  %13 = alloca i16, align 2
  %14 = getelementptr inbounds nuw { i64, i64 }, ptr %7, i32 0, i32 0
  store i64 %0, ptr %14, align 1
  %15 = getelementptr inbounds nuw { i64, i64 }, ptr %7, i32 0, i32 1
  store i64 %1, ptr %15, align 1
  store ptr %2, ptr %8, align 8
  store ptr %3, ptr %9, align 8
  store ptr %4, ptr %10, align 8
  store ptr %5, ptr %11, align 8
  call void @llvm.lifetime.start.p0(i64 8, ptr %12) #7
  %16 = getelementptr inbounds nuw %struct.SDL_GUID, ptr %7, i32 0, i32 0
  %17 = getelementptr inbounds [16 x i8], ptr %16, i64 0, i64 0
  store ptr %17, ptr %12, align 8
  call void @llvm.lifetime.start.p0(i64 2, ptr %13) #7
  %18 = load ptr, ptr %12, align 8
  %19 = getelementptr inbounds i16, ptr %18, i64 0
  %20 = load i16, ptr %19, align 2
  store i16 %20, ptr %13, align 2
  %21 = load i16, ptr %13, align 2
  %22 = zext i16 %21 to i32
  %23 = icmp slt i32 %22, 32
  br i1 %23, label %28, label %24

24:                                               ; preds = %6
  %25 = load i16, ptr %13, align 2
  %26 = zext i16 %25 to i32
  %27 = icmp eq i32 %26, 255
  br i1 %27, label %28, label %73

28:                                               ; preds = %24, %6
  %29 = load ptr, ptr %12, align 8
  %30 = getelementptr inbounds i16, ptr %29, i64 3
  %31 = load i16, ptr %30, align 2
  %32 = zext i16 %31 to i32
  %33 = icmp eq i32 %32, 0
  br i1 %33, label %34, label %73

34:                                               ; preds = %28
  %35 = load ptr, ptr %12, align 8
  %36 = getelementptr inbounds i16, ptr %35, i64 5
  %37 = load i16, ptr %36, align 2
  %38 = zext i16 %37 to i32
  %39 = icmp eq i32 %38, 0
  br i1 %39, label %40, label %73

40:                                               ; preds = %34
  %41 = load ptr, ptr %8, align 8
  %42 = icmp ne ptr %41, null
  br i1 %42, label %43, label %48

43:                                               ; preds = %40
  %44 = load ptr, ptr %12, align 8
  %45 = getelementptr inbounds i16, ptr %44, i64 2
  %46 = load i16, ptr %45, align 2
  %47 = load ptr, ptr %8, align 8
  store i16 %46, ptr %47, align 2
  br label %48

48:                                               ; preds = %43, %40
  %49 = load ptr, ptr %9, align 8
  %50 = icmp ne ptr %49, null
  br i1 %50, label %51, label %56

51:                                               ; preds = %48
  %52 = load ptr, ptr %12, align 8
  %53 = getelementptr inbounds i16, ptr %52, i64 4
  %54 = load i16, ptr %53, align 2
  %55 = load ptr, ptr %9, align 8
  store i16 %54, ptr %55, align 2
  br label %56

56:                                               ; preds = %51, %48
  %57 = load ptr, ptr %10, align 8
  %58 = icmp ne ptr %57, null
  br i1 %58, label %59, label %64

59:                                               ; preds = %56
  %60 = load ptr, ptr %12, align 8
  %61 = getelementptr inbounds i16, ptr %60, i64 6
  %62 = load i16, ptr %61, align 2
  %63 = load ptr, ptr %10, align 8
  store i16 %62, ptr %63, align 2
  br label %64

64:                                               ; preds = %59, %56
  %65 = load ptr, ptr %11, align 8
  %66 = icmp ne ptr %65, null
  br i1 %66, label %67, label %72

67:                                               ; preds = %64
  %68 = load ptr, ptr %12, align 8
  %69 = getelementptr inbounds i16, ptr %68, i64 1
  %70 = load i16, ptr %69, align 2
  %71 = load ptr, ptr %11, align 8
  store i16 %70, ptr %71, align 2
  br label %72

72:                                               ; preds = %67, %64
  br label %127

73:                                               ; preds = %34, %28, %24
  %74 = load i16, ptr %13, align 2
  %75 = zext i16 %74 to i32
  %76 = icmp slt i32 %75, 32
  br i1 %76, label %81, label %77

77:                                               ; preds = %73
  %78 = load i16, ptr %13, align 2
  %79 = zext i16 %78 to i32
  %80 = icmp eq i32 %79, 255
  br i1 %80, label %81, label %105

81:                                               ; preds = %77, %73
  %82 = load ptr, ptr %8, align 8
  %83 = icmp ne ptr %82, null
  br i1 %83, label %84, label %86

84:                                               ; preds = %81
  %85 = load ptr, ptr %8, align 8
  store i16 0, ptr %85, align 2
  br label %86

86:                                               ; preds = %84, %81
  %87 = load ptr, ptr %9, align 8
  %88 = icmp ne ptr %87, null
  br i1 %88, label %89, label %91

89:                                               ; preds = %86
  %90 = load ptr, ptr %9, align 8
  store i16 0, ptr %90, align 2
  br label %91

91:                                               ; preds = %89, %86
  %92 = load ptr, ptr %10, align 8
  %93 = icmp ne ptr %92, null
  br i1 %93, label %94, label %96

94:                                               ; preds = %91
  %95 = load ptr, ptr %10, align 8
  store i16 0, ptr %95, align 2
  br label %96

96:                                               ; preds = %94, %91
  %97 = load ptr, ptr %11, align 8
  %98 = icmp ne ptr %97, null
  br i1 %98, label %99, label %104

99:                                               ; preds = %96
  %100 = load ptr, ptr %12, align 8
  %101 = getelementptr inbounds i16, ptr %100, i64 1
  %102 = load i16, ptr %101, align 2
  %103 = load ptr, ptr %11, align 8
  store i16 %102, ptr %103, align 2
  br label %104

104:                                              ; preds = %99, %96
  br label %126

105:                                              ; preds = %77
  %106 = load ptr, ptr %8, align 8
  %107 = icmp ne ptr %106, null
  br i1 %107, label %108, label %110

108:                                              ; preds = %105
  %109 = load ptr, ptr %8, align 8
  store i16 0, ptr %109, align 2
  br label %110

110:                                              ; preds = %108, %105
  %111 = load ptr, ptr %9, align 8
  %112 = icmp ne ptr %111, null
  br i1 %112, label %113, label %115

113:                                              ; preds = %110
  %114 = load ptr, ptr %9, align 8
  store i16 0, ptr %114, align 2
  br label %115

115:                                              ; preds = %113, %110
  %116 = load ptr, ptr %10, align 8
  %117 = icmp ne ptr %116, null
  br i1 %117, label %118, label %120

118:                                              ; preds = %115
  %119 = load ptr, ptr %10, align 8
  store i16 0, ptr %119, align 2
  br label %120

120:                                              ; preds = %118, %115
  %121 = load ptr, ptr %11, align 8
  %122 = icmp ne ptr %121, null
  br i1 %122, label %123, label %125

123:                                              ; preds = %120
  %124 = load ptr, ptr %11, align 8
  store i16 0, ptr %124, align 2
  br label %125

125:                                              ; preds = %123, %120
  br label %126

126:                                              ; preds = %125, %104
  br label %127

127:                                              ; preds = %126, %72
  call void @llvm.lifetime.end.p0(i64 2, ptr %13) #7
  call void @llvm.lifetime.end.p0(i64 8, ptr %12) #7
  ret void
}

; Function Attrs: nounwind uwtable
define hidden ptr @SDL_GetJoystickVirtualGamepadInfoForID(i32 noundef %0) #0 {
  %2 = alloca i32, align 4
  %3 = alloca ptr, align 8
  %4 = alloca i32, align 4
  %5 = alloca ptr, align 8
  store i32 %0, ptr %2, align 4
  call void @llvm.lifetime.start.p0(i64 8, ptr %3) #7
  call void @llvm.lifetime.start.p0(i64 4, ptr %4) #7
  call void @llvm.lifetime.start.p0(i64 8, ptr %5) #7
  store ptr null, ptr %5, align 8
  %6 = call zeroext i1 @SDL_SteamVirtualGamepadEnabled()
  br i1 %6, label %7, label %17

7:                                                ; preds = %1
  %8 = load i32, ptr %2, align 4
  %9 = call zeroext i1 @SDL_GetDriverAndJoystickIndex(i32 noundef %8, ptr noundef %3, ptr noundef %4)
  br i1 %9, label %10, label %17

10:                                               ; preds = %7
  %11 = load ptr, ptr %3, align 8
  %12 = getelementptr inbounds nuw %struct.SDL_JoystickDriver, ptr %11, i32 0, i32 6
  %13 = load ptr, ptr %12, align 8
  %14 = load i32, ptr %4, align 4
  %15 = call i32 %13(i32 noundef %14)
  %16 = call ptr @SDL_GetSteamVirtualGamepadInfo(i32 noundef %15)
  store ptr %16, ptr %5, align 8
  br label %17

17:                                               ; preds = %10, %7, %1
  %18 = load ptr, ptr %5, align 8
  call void @llvm.lifetime.end.p0(i64 8, ptr %5) #7
  call void @llvm.lifetime.end.p0(i64 4, ptr %4) #7
  call void @llvm.lifetime.end.p0(i64 8, ptr %3) #7
  ret ptr %18
}

; Function Attrs: nounwind uwtable
define hidden void @SDL_LockJoysticks_REAL() #0 {
  %1 = call i32 @SDL_AddAtomicInt_REAL(ptr noundef @SDL_joystick_lock_pending, i32 noundef 1)
  %2 = load ptr, ptr @SDL_joystick_lock, align 8
  call void @SDL_LockMutex_REAL(ptr noundef %2)
  %3 = call i32 @SDL_AddAtomicInt_REAL(ptr noundef @SDL_joystick_lock_pending, i32 noundef -1)
  %4 = load i32, ptr @SDL_joysticks_locked, align 4
  %5 = add nsw i32 %4, 1
  store i32 %5, ptr @SDL_joysticks_locked, align 4
  ret void
}

; Function Attrs: nounwind uwtable
define hidden zeroext i16 @SDL_GetJoystickVendorForID_REAL(i32 noundef %0) #0 {
  %2 = alloca i32, align 4
  %3 = alloca i16, align 2
  %4 = alloca ptr, align 8
  %5 = alloca %struct.SDL_GUID, align 1
  store i32 %0, ptr %2, align 4
  call void @llvm.lifetime.start.p0(i64 2, ptr %3) #7
  call void @llvm.lifetime.start.p0(i64 8, ptr %4) #7
  call void @SDL_LockJoysticks_REAL()
  %6 = load i32, ptr %2, align 4
  %7 = call ptr @SDL_GetJoystickVirtualGamepadInfoForID(i32 noundef %6)
  store ptr %7, ptr %4, align 8
  %8 = load ptr, ptr %4, align 8
  %9 = icmp ne ptr %8, null
  br i1 %9, label %10, label %14

10:                                               ; preds = %1
  %11 = load ptr, ptr %4, align 8
  %12 = getelementptr inbounds nuw %struct.SDL_SteamVirtualGamepadInfo, ptr %11, i32 0, i32 2
  %13 = load i16, ptr %12, align 8
  store i16 %13, ptr %3, align 2
  br label %26

14:                                               ; preds = %1
  call void @llvm.lifetime.start.p0(i64 16, ptr %5) #7
  %15 = load i32, ptr %2, align 4
  %16 = call { i64, i64 } @SDL_GetJoystickGUIDForID_REAL(i32 noundef %15)
  %17 = getelementptr inbounds nuw %struct.SDL_GUID, ptr %5, i32 0, i32 0
  %18 = getelementptr inbounds nuw { i64, i64 }, ptr %17, i32 0, i32 0
  %19 = extractvalue { i64, i64 } %16, 0
  store i64 %19, ptr %18, align 1
  %20 = getelementptr inbounds nuw { i64, i64 }, ptr %17, i32 0, i32 1
  %21 = extractvalue { i64, i64 } %16, 1
  store i64 %21, ptr %20, align 1
  %22 = getelementptr inbounds nuw { i64, i64 }, ptr %5, i32 0, i32 0
  %23 = load i64, ptr %22, align 1
  %24 = getelementptr inbounds nuw { i64, i64 }, ptr %5, i32 0, i32 1
  %25 = load i64, ptr %24, align 1
  call void @SDL_GetJoystickGUIDInfo_REAL(i64 %23, i64 %25, ptr noundef %3, ptr noundef null, ptr noundef null, ptr noundef null)
  call void @llvm.lifetime.end.p0(i64 16, ptr %5) #7
  br label %26

26:                                               ; preds = %14, %10
  call void @SDL_UnlockJoysticks_REAL()
  %27 = load i16, ptr %3, align 2
  call void @llvm.lifetime.end.p0(i64 8, ptr %4) #7
  call void @llvm.lifetime.end.p0(i64 2, ptr %3) #7
  ret i16 %27
}