; Function Attrs: nounwind uwtable
define hidden zeroext i16 @SDL_GetJoystickVendorForID_REAL(i32 noundef %0) local_unnamed_addr #1 {
  %2 = tail call i32 @SDL_AddAtomicInt_REAL(ptr noundef nonnull @SDL_joystick_lock_pending, i32 noundef 1) #13
  %3 = load ptr, ptr @SDL_joystick_lock, align 8
  tail call void @SDL_LockMutex_REAL(ptr noundef %3) #13
  %4 = tail call i32 @SDL_AddAtomicInt_REAL(ptr noundef nonnull @SDL_joystick_lock_pending, i32 noundef -1) #13
  %5 = load i32, ptr @SDL_joysticks_locked, align 4
  %6 = add nsw i32 %5, 1
  store i32 %6, ptr @SDL_joysticks_locked, align 4
  %7 = tail call zeroext i1 @SDL_SteamVirtualGamepadEnabled() #13
  br i1 %7, label %8, label %SDL_GetJoystickVirtualGamepadInfoForID.exit.thread

8:                                                ; preds = %1
  %.not.i.i = icmp eq i32 %0, 0
  br i1 %.not.i.i, label %SDL_GetDriverAndJoystickIndex.exit.i, label %.preheader.i.i

.preheader.i.i:                                   ; preds = %8, %._crit_edge.i.i
  %indvars.iv.i.i = phi i64 [ %indvars.iv.next.i.i, %._crit_edge.i.i ], [ 0, %8 ]
  %9 = getelementptr inbounds nuw [3 x ptr], ptr @SDL_joystick_drivers, i64 0, i64 %indvars.iv.i.i
  %10 = load ptr, ptr %9, align 8
  %11 = getelementptr inbounds nuw i8, ptr %10, i64 8
  %12 = load ptr, ptr %11, align 8
  %13 = tail call i32 %12() #13
  %14 = icmp sgt i32 %13, 0
  br i1 %14, label %.lr.ph.i.i, label %._crit_edge.i.i

.lr.ph.i.i:                                       ; preds = %.preheader.i.i
  %15 = getelementptr inbounds nuw i8, ptr %10, i64 80
  br label %16

16:                                               ; preds = %.critedge.i.i, %.lr.ph.i.i
  %.01824.i.i = phi i32 [ 0, %.lr.ph.i.i ], [ %19, %.critedge.i.i ]
  %17 = load ptr, ptr %15, align 8
  %18 = tail call i32 %17(i32 noundef %.01824.i.i) #13
  %.not22.i.i = icmp eq i32 %18, %0
  br i1 %.not22.i.i, label %SDL_GetJoystickVirtualGamepadInfoForID.exit, label %.critedge.i.i

.critedge.i.i:                                    ; preds = %16
  %19 = add nuw nsw i32 %.01824.i.i, 1
  %exitcond.not.i.i = icmp eq i32 %19, %13
  br i1 %exitcond.not.i.i, label %._crit_edge.i.i, label %16, !llvm.loop !13

._crit_edge.i.i:                                  ; preds = %.critedge.i.i, %.preheader.i.i
  %indvars.iv.next.i.i = add nuw nsw i64 %indvars.iv.i.i, 1
  %exitcond29.not.i.i = icmp eq i64 %indvars.iv.next.i.i, 3
  br i1 %exitcond29.not.i.i, label %SDL_GetDriverAndJoystickIndex.exit.i, label %.preheader.i.i, !llvm.loop !14

SDL_GetDriverAndJoystickIndex.exit.i:             ; preds = %._crit_edge.i.i, %8
  %20 = tail call zeroext i1 (ptr, ...) @SDL_SetError_REAL(ptr noundef nonnull @.str.43, i32 noundef %0) #13
  br label %SDL_GetJoystickVirtualGamepadInfoForID.exit.thread

SDL_GetJoystickVirtualGamepadInfoForID.exit:      ; preds = %16
  %21 = getelementptr inbounds nuw i8, ptr %10, i64 48
  %22 = load ptr, ptr %21, align 8
  %23 = tail call i32 %22(i32 noundef %.01824.i.i) #13
  %24 = tail call ptr @SDL_GetSteamVirtualGamepadInfo(i32 noundef %23) #13
  %.not = icmp eq ptr %24, null
  br i1 %.not, label %SDL_GetJoystickVirtualGamepadInfoForID.exit.thread, label %25

25:                                               ; preds = %SDL_GetJoystickVirtualGamepadInfoForID.exit
  %26 = getelementptr inbounds nuw i8, ptr %24, i64 16
  %27 = load i16, ptr %26, align 8
  br label %SDL_GetJoystickGUIDInfo_REAL.exit

SDL_GetJoystickVirtualGamepadInfoForID.exit.thread: ; preds = %1, %SDL_GetDriverAndJoystickIndex.exit.i, %SDL_GetJoystickVirtualGamepadInfoForID.exit
  %28 = tail call { i64, i64 } @SDL_GetJoystickGUIDForID_REAL(i32 noundef %0)
  %29 = extractvalue { i64, i64 } %28, 0
  %30 = extractvalue { i64, i64 } %28, 1
  %.sroa.0.0.extract.trunc.i = trunc i64 %29 to i32
  %.sroa.4.0.extract.shift.i = lshr i64 %29, 32
  %.sroa.4.0.extract.trunc.i = trunc i64 %.sroa.4.0.extract.shift.i to i16
  %31 = and i32 %.sroa.0.0.extract.trunc.i, 65535
  %32 = icmp samesign ult i32 %31, 32
  %33 = icmp eq i32 %31, 255
  %or.cond.i = or i1 %32, %33
  %34 = icmp ult i64 %29, 281474976710656
  %or.cond61.i = and i1 %34, %or.cond.i
  %35 = and i64 %30, 4294901760
  %36 = icmp eq i64 %35, 0
  %or.cond63.i = select i1 %or.cond61.i, i1 %36, i1 false
  %spec.select = select i1 %or.cond63.i, i16 %.sroa.4.0.extract.trunc.i, i16 0
  br label %SDL_GetJoystickGUIDInfo_REAL.exit

SDL_GetJoystickGUIDInfo_REAL.exit:                ; preds = %SDL_GetJoystickVirtualGamepadInfoForID.exit.thread, %25
  %.0 = phi i16 [ %27, %25 ], [ %spec.select, %SDL_GetJoystickVirtualGamepadInfoForID.exit.thread ]
  %37 = load i32, ptr @SDL_joysticks_locked, align 4
  %38 = add nsw i32 %37, -1
  store i32 %38, ptr @SDL_joysticks_locked, align 4
  %.b4.i = load i1, ptr @SDL_joysticks_initialized, align 1
  %39 = icmp ne i32 %38, 0
  %or.cond.i3 = select i1 %.b4.i, i1 true, i1 %39
  br i1 %or.cond.i3, label %.critedge.i, label %40

40:                                               ; preds = %SDL_GetJoystickGUIDInfo_REAL.exit
  %41 = tail call i32 @SDL_GetAtomicInt_REAL(ptr noundef nonnull @SDL_joystick_lock_pending) #13
  %42 = icmp eq i32 %41, 0
  br i1 %42, label %43, label %.critedge.i

43:                                               ; preds = %40
  %44 = load ptr, ptr @SDL_joystick_lock, align 8
  tail call void @SDL_LockMutex_REAL(ptr noundef %44) #13
  %45 = load ptr, ptr @SDL_joystick_lock, align 8
  tail call void @SDL_UnlockMutex_REAL(ptr noundef %45) #13
  store ptr null, ptr @SDL_joystick_lock, align 8
  tail call void @SDL_UnlockMutex_REAL(ptr noundef %44) #13
  tail call void @SDL_DestroyMutex_REAL(ptr noundef %44) #13
  br label %SDL_UnlockJoysticks_REAL.exit

.critedge.i:                                      ; preds = %40, %SDL_GetJoystickGUIDInfo_REAL.exit
  %46 = load ptr, ptr @SDL_joystick_lock, align 8
  tail call void @SDL_UnlockMutex_REAL(ptr noundef %46) #13
  br label %SDL_UnlockJoysticks_REAL.exit

SDL_UnlockJoysticks_REAL.exit:                    ; preds = %43, %.critedge.i
  ret i16 %.0
}